target datalayout = "e-m:e-p270:32:32-p271:32:32-p272:64:64-i64:64-i128:128-f80:128-n8:16:32:64-S128"
target triple = "x86_64-unknown-linux-gnu"

%"class.OpenImageIO_v2_6_0::pvt::TextureSystemImpl" = type <{ %"class.OpenImageIO_v2_6_0::TextureSystem", ptr, i8, [3 x i8], %"class.Imath_2_5::Matrix44", %"class.Imath_2_5::Matrix44", i8, i8, [2 x i8], i32, i32, %"class.boost::thread_specific_ptr", %"class.std::unique_ptr", i32, [4 x i8] }>
%"class.OpenImageIO_v2_6_0::TextureSystem" = type { ptr }
%"class.Imath_2_5::Matrix44" = type { [4 x [4 x float]] }
%"class.boost::thread_specific_ptr" = type { ptr }
%"class.std::unique_ptr" = type { %"struct.std::__uniq_ptr_data" }
%"struct.std::__uniq_ptr_data" = type { %"class.std::__uniq_ptr_impl" }
%"class.std::__uniq_ptr_impl" = type { %"class.std::tuple" }
%"class.std::tuple" = type { %"struct.std::_Tuple_impl" }
%"struct.std::_Tuple_impl" = type { %"struct.std::_Head_base.3" }
%"struct.std::_Head_base.3" = type { ptr }
%"class.std::__cxx11::basic_string" = type { %"struct.std::__cxx11::basic_string<char>::_Alloc_hider", i64, %union.anon.8 }
%"struct.std::__cxx11::basic_string<char>::_Alloc_hider" = type { ptr }
%union.anon.8 = type { i64, [8 x i8] }
%"class.OpenImageIO_v2_6_0::ustring" = type { ptr }
%"class.OpenImageIO_v2_6_0::TextureOpt" = type { i32, i32, %"class.OpenImageIO_v2_6_0::ustring", i32, i32, i32, i32, i32, i8, float, float, float, float, float, ptr, float, %union.anon.86, i32, i32, float, float, i32, i32 }
%union.anon.86 = type { float }

; Function Attrs: mustprogress uwtable
define linkonce_odr hidden noundef ptr @_ZNK5boost19thread_specific_ptrINSt7__cxx1112basic_stringIcSt11char_traitsIcESaIcEEEE3getEv(ptr noundef nonnull align 8 dereferenceable(8) %this) #7 comdat align 2 {
entry:
  %this.addr = alloca ptr, align 8
  store ptr %this, ptr %this.addr, align 8
  %this1 = load ptr, ptr %this.addr, align 8
  %call = call noundef ptr @_ZN5boost6detail12get_tss_dataEPKv(ptr noundef %this1)
  ret ptr %call
}

; Function Attrs: mustprogress uwtable
define hidden void @_ZNK18OpenImageIO_v2_6_03pvt17TextureSystemImpl8geterrorB5cxx11Eb(ptr noalias sret(%"class.std::__cxx11::basic_string") align 8 %agg.result, ptr noundef nonnull align 8 dereferenceable(184) %this, i1 noundef zeroext %clear) unnamed_addr #7 align 2 personality ptr @__gxx_personality_v0 {
entry:
  %result.ptr = alloca ptr, align 8
  %this.addr = alloca ptr, align 8
  %clear.addr = alloca i8, align 1
  %nrvo = alloca i1, align 1
  %errptr = alloca ptr, align 8
  %exn.slot = alloca ptr, align 8
  %ehselector.slot = alloca i32, align 4
  store ptr %agg.result, ptr %result.ptr, align 8
  store ptr %this, ptr %this.addr, align 8
  %frombool = zext i1 %clear to i8
  store i8 %frombool, ptr %clear.addr, align 1
  %this1 = load ptr, ptr %this.addr, align 8
  store i1 false, ptr %nrvo, align 1
  call void @_ZNSt7__cxx1112basic_stringIcSt11char_traitsIcESaIcEEC1Ev(ptr noundef nonnull align 8 dereferenceable(32) %agg.result) #5
  %m_errormessage = getelementptr inbounds %"class.OpenImageIO_v2_6_0::pvt::TextureSystemImpl", ptr %this1, i32 0, i32 11
  %call = invoke noundef ptr @_ZNK5boost19thread_specific_ptrINSt7__cxx1112basic_stringIcSt11char_traitsIcESaIcEEEE3getEv(ptr noundef nonnull align 8 dereferenceable(8) %m_errormessage)
          to label %invoke.cont unwind label %lpad

invoke.cont:                                      ; preds = %entry
  store ptr %call, ptr %errptr, align 8
  %0 = load ptr, ptr %errptr, align 8
  %tobool = icmp ne ptr %0, null
  br i1 %tobool, label %if.then, label %if.end6

if.then:                                          ; preds = %invoke.cont
  %1 = load ptr, ptr %errptr, align 8
  %call3 = invoke noundef nonnull align 8 dereferenceable(32) ptr @_ZNSt7__cxx1112basic_stringIcSt11char_traitsIcESaIcEEaSERKS4_(ptr noundef nonnull align 8 dereferenceable(32) %agg.result, ptr noundef nonnull align 8 dereferenceable(32) %1)
          to label %invoke.cont2 unwind label %lpad

invoke.cont2:                                     ; preds = %if.then
  %2 = load i8, ptr %clear.addr, align 1
  %tobool4 = trunc i8 %2 to i1
  br i1 %tobool4, label %if.then5, label %if.end

if.then5:                                         ; preds = %invoke.cont2
  %3 = load ptr, ptr %errptr, align 8
  call void @_ZNSt7__cxx1112basic_stringIcSt11char_traitsIcESaIcEE5clearEv(ptr noundef nonnull align 8 dereferenceable(32) %3) #5
  br label %if.end

lpad:                                             ; preds = %if.then, %entry
  %4 = landingpad { ptr, i32 }
          cleanup
  %5 = extractvalue { ptr, i32 } %4, 0
  store ptr %5, ptr %exn.slot, align 8
  %6 = extractvalue { ptr, i32 } %4, 1
  store i32 %6, ptr %ehselector.slot, align 4
  call void @_ZNSt7__cxx1112basic_stringIcSt11char_traitsIcESaIcEED1Ev(ptr noundef nonnull align 8 dereferenceable(32) %agg.result) #5
  br label %eh.resume

if.end:                                           ; preds = %if.then5, %invoke.cont2
  br label %if.end6

if.end6:                                          ; preds = %if.end, %invoke.cont
  store i1 true, ptr %nrvo, align 1
  %nrvo.val = load i1, ptr %nrvo, align 1
  br i1 %nrvo.val, label %nrvo.skipdtor, label %nrvo.unused

nrvo.unused:                                      ; preds = %if.end6
  call void @_ZNSt7__cxx1112basic_stringIcSt11char_traitsIcESaIcEED1Ev(ptr noundef nonnull align 8 dereferenceable(32) %agg.result) #5
  br label %nrvo.skipdtor

nrvo.skipdtor:                                    ; preds = %nrvo.unused, %if.end6
  ret void

eh.resume:                                        ; preds = %lpad
  %exn = load ptr, ptr %exn.slot, align 8
  %sel = load i32, ptr %ehselector.slot, align 4
  %lpad.val = insertvalue { ptr, i32 } poison, ptr %exn, 0
  %lpad.val7 = insertvalue { ptr, i32 } %lpad.val, i32 %sel, 1
  resume { ptr, i32 } %lpad.val7
}

; Function Attrs: mustprogress uwtable
define hidden noundef zeroext i1 @_ZN18OpenImageIO_v2_6_03pvt17TextureSystemImpl15missing_textureERNS_10TextureOptEiPfS4_S4_S4_(ptr noundef nonnull align 8 dereferenceable(184) %this, ptr noundef nonnull align 8 dereferenceable(104) %options, i32 noundef %nchannels, ptr noundef %result, ptr noundef %dresultds, ptr noundef %dresultdt, ptr noundef %dresultdr) #7 align 2 {
entry:
  %retval = alloca i1, align 1
  %this.addr = alloca ptr, align 8
  %options.addr = alloca ptr, align 8
  %nchannels.addr = alloca i32, align 4
  %result.addr = alloca ptr, align 8
  %dresultds.addr = alloca ptr, align 8
  %dresultdt.addr = alloca ptr, align 8
  %dresultdr.addr = alloca ptr, align 8
  %c = alloca i32, align 4
  %agg.tmp.ensured = alloca %"class.std::__cxx11::basic_string", align 8
  store ptr %this, ptr %this.addr, align 8
  store ptr %options, ptr %options.addr, align 8
  store i32 %nchannels, ptr %nchannels.addr, align 4
  store ptr %result, ptr %result.addr, align 8
  store ptr %dresultds, ptr %dresultds.addr, align 8
  store ptr %dresultdt, ptr %dresultdt.addr, align 8
  store ptr %dresultdr, ptr %dresultdr.addr, align 8
  %this1 = load ptr, ptr %this.addr, align 8
  store i32 0, ptr %c, align 4
  br label %for.cond

for.cond:                                         ; preds = %for.inc, %entry
  %0 = load i32, ptr %c, align 4
  %1 = load i32, ptr %nchannels.addr, align 4
  %cmp = icmp slt i32 %0, %1
  br i1 %cmp, label %for.body, label %for.end

for.body:                                         ; preds = %for.cond
  %2 = load ptr, ptr %options.addr, align 8
  %missingcolor = getelementptr inbounds %"class.OpenImageIO_v2_6_0::TextureOpt", ptr %2, i32 0, i32 14
  %3 = load ptr, ptr %missingcolor, align 8
  %tobool = icmp ne ptr %3, null
  br i1 %tobool, label %if.then, label %if.else

if.then:                                          ; preds = %for.body
  %4 = load ptr, ptr %options.addr, align 8
  %missingcolor2 = getelementptr inbounds %"class.OpenImageIO_v2_6_0::TextureOpt", ptr %4, i32 0, i32 14
  %5 = load ptr, ptr %missingcolor2, align 8
  %6 = load i32, ptr %c, align 4
  %idxprom = sext i32 %6 to i64
  %arrayidx = getelementptr inbounds float, ptr %5, i64 %idxprom
  %7 = load float, ptr %arrayidx, align 4
  %8 = load ptr, ptr %result.addr, align 8
  %9 = load i32, ptr %c, align 4
  %idxprom3 = sext i32 %9 to i64
  %arrayidx4 = getelementptr inbounds float, ptr %8, i64 %idxprom3
  store float %7, ptr %arrayidx4, align 4
  br label %if.end

if.else:                                          ; preds = %for.body
  %10 = load ptr, ptr %options.addr, align 8
  %fill = getelementptr inbounds %"class.OpenImageIO_v2_6_0::TextureOpt", ptr %10, i32 0, i32 13
  %11 = load float, ptr %fill, align 8
  %12 = load ptr, ptr %result.addr, align 8
  %13 = load i32, ptr %c, align 4
  %idxprom5 = sext i32 %13 to i64
  %arrayidx6 = getelementptr inbounds float, ptr %12, i64 %idxprom5
  store float %11, ptr %arrayidx6, align 4
  br label %if.end

if.end:                                           ; preds = %if.else, %if.then
  %14 = load ptr, ptr %dresultds.addr, align 8
  %tobool7 = icmp ne ptr %14, null
  br i1 %tobool7, label %if.then8, label %if.end11

if.then8:                                         ; preds = %if.end
  %15 = load ptr, ptr %dresultds.addr, align 8
  %16 = load i32, ptr %c, align 4
  %idxprom9 = sext i32 %16 to i64
  %arrayidx10 = getelementptr inbounds float, ptr %15, i64 %idxprom9
  store float 0.000000e+00, ptr %arrayidx10, align 4
  br label %if.end11

if.end11:                                         ; preds = %if.then8, %if.end
  %17 = load ptr, ptr %dresultdt.addr, align 8
  %tobool12 = icmp ne ptr %17, null
  br i1 %tobool12, label %if.then13, label %if.end16

if.then13:                                        ; preds = %if.end11
  %18 = load ptr, ptr %dresultdt.addr, align 8
  %19 = load i32, ptr %c, align 4
  %idxprom14 = sext i32 %19 to i64
  %arrayidx15 = getelementptr inbounds float, ptr %18, i64 %idxprom14
  store float 0.000000e+00, ptr %arrayidx15, align 4
  br label %if.end16

if.end16:                                         ; preds = %if.then13, %if.end11
  %20 = load ptr, ptr %dresultdr.addr, align 8
  %tobool17 = icmp ne ptr %20, null
  br i1 %tobool17, label %if.then18, label %if.end21

if.then18:                                        ; preds = %if.end16
  %21 = load ptr, ptr %dresultdr.addr, align 8
  %22 = load i32, ptr %c, align 4
  %idxprom19 = sext i32 %22 to i64
  %arrayidx20 = getelementptr inbounds float, ptr %21, i64 %idxprom19
  store float 0.000000e+00, ptr %arrayidx20, align 4
  br label %if.end21

if.end21:                                         ; preds = %if.then18, %if.end16
  br label %for.inc

for.inc:                                          ; preds = %if.end21
  %23 = load i32, ptr %c, align 4
  %inc = add nsw i32 %23, 1
  store i32 %inc, ptr %c, align 4
  br label %for.cond, !llvm.loop !186

for.end:                                          ; preds = %for.cond
  %24 = load ptr, ptr %options.addr, align 8
  %missingcolor22 = getelementptr inbounds %"class.OpenImageIO_v2_6_0::TextureOpt", ptr %24, i32 0, i32 14
  %25 = load ptr, ptr %missingcolor22, align 8
  %tobool23 = icmp ne ptr %25, null
  br i1 %tobool23, label %if.then24, label %if.else25

if.then24:                                        ; preds = %for.end
  call void @_ZNK18OpenImageIO_v2_6_03pvt17TextureSystemImpl8geterrorB5cxx11Eb(ptr sret(%"class.std::__cxx11::basic_string") align 8 %agg.tmp.ensured, ptr noundef nonnull align 8 dereferenceable(184) %this1, i1 noundef zeroext true)
  call void @_ZNSt7__cxx1112basic_stringIcSt11char_traitsIcESaIcEED1Ev(ptr noundef nonnull align 8 dereferenceable(32) %agg.tmp.ensured) #5
  store i1 true, ptr %retval, align 1
  br label %return

if.else25:                                        ; preds = %for.end
  store i1 false, ptr %retval, align 1
  br label %return

return:                                           ; preds = %if.else25, %if.then24
  %26 = load i1, ptr %retval, align 1
  ret i1 %26
}