; Function Attrs: mustprogress uwtable
define hidden noundef zeroext i1 @_ZN18OpenImageIO_v2_6_03pvt17TextureSystemImpl15missing_textureERNS_10TextureOptEiPfS4_S4_S4_(ptr noundef nonnull align 8 dereferenceable(184) %this, ptr nocapture noundef nonnull readonly align 8 dereferenceable(104) %options, i32 noundef %nchannels, ptr nocapture noundef writeonly %result, ptr noundef writeonly %dresultds, ptr noundef writeonly %dresultdt, ptr noundef writeonly %dresultdr) local_unnamed_addr #5 align 2 personality ptr @__gxx_personality_v0 {
entry:
  %agg.tmp.ensured = alloca %"class.std::__cxx11::basic_string", align 8
  %cmp15 = icmp sgt i32 %nchannels, 0
  br i1 %cmp15, label %for.body.lr.ph, label %for.end

for.body.lr.ph:                                   ; preds = %entry
  %missingcolor = getelementptr inbounds i8, ptr %options, i64 64
  %fill = getelementptr inbounds i8, ptr %options, i64 56
  %tobool7.not = icmp eq ptr %dresultds, null
  %tobool12.not = icmp eq ptr %dresultdt, null
  %tobool17.not = icmp eq ptr %dresultdr, null
  %wide.trip.count88 = zext nneg i32 %nchannels to i64
  br i1 %tobool7.not, label %for.body.lr.ph.split.us, label %for.body.lr.ph.split

for.body.lr.ph.split.us:                          ; preds = %for.body.lr.ph
  br i1 %tobool12.not, label %for.body.lr.ph.split.us.split.us, label %for.body.us

for.body.lr.ph.split.us.split.us:                 ; preds = %for.body.lr.ph.split.us
  br i1 %tobool17.not, label %for.body.us.us.us, label %for.body.us.us

for.body.us.us.us:                                ; preds = %for.body.lr.ph.split.us.split.us, %for.body.us.us.us
  %indvars.iv85 = phi i64 [ %indvars.iv.next86, %for.body.us.us.us ], [ 0, %for.body.lr.ph.split.us.split.us ]
  %0 = load ptr, ptr %missingcolor, align 8
  %tobool.not.us.us.us = icmp eq ptr %0, null
  %arrayidx.us.us.us = getelementptr inbounds float, ptr %0, i64 %indvars.iv85
  %spec.select = select i1 %tobool.not.us.us.us, ptr %fill, ptr %arrayidx.us.us.us
  %.sink = load float, ptr %spec.select, align 4
  %1 = getelementptr inbounds float, ptr %result, i64 %indvars.iv85
  store float %.sink, ptr %1, align 4
  %indvars.iv.next86 = add nuw nsw i64 %indvars.iv85, 1
  %exitcond89.not = icmp eq i64 %indvars.iv.next86, %wide.trip.count88
  br i1 %exitcond89.not, label %for.end, label %for.body.us.us.us, !llvm.loop !89

for.body.us.us:                                   ; preds = %for.body.lr.ph.split.us.split.us, %for.body.us.us
  %indvars.iv80 = phi i64 [ %indvars.iv.next81, %for.body.us.us ], [ 0, %for.body.lr.ph.split.us.split.us ]
  %2 = load ptr, ptr %missingcolor, align 8
  %tobool.not.us.us = icmp eq ptr %2, null
  %arrayidx.us.us = getelementptr inbounds float, ptr %2, i64 %indvars.iv80
  %spec.select102 = select i1 %tobool.not.us.us, ptr %fill, ptr %arrayidx.us.us
  %.sink90 = load float, ptr %spec.select102, align 4
  %3 = getelementptr inbounds float, ptr %result, i64 %indvars.iv80
  store float %.sink90, ptr %3, align 4
  %arrayidx20.us.us = getelementptr inbounds float, ptr %dresultdr, i64 %indvars.iv80
  store float 0.000000e+00, ptr %arrayidx20.us.us, align 4
  %indvars.iv.next81 = add nuw nsw i64 %indvars.iv80, 1
  %exitcond84.not = icmp eq i64 %indvars.iv.next81, %wide.trip.count88
  br i1 %exitcond84.not, label %for.end, label %for.body.us.us, !llvm.loop !89

for.body.us:                                      ; preds = %for.body.lr.ph.split.us, %for.inc.us
  %indvars.iv75 = phi i64 [ %indvars.iv.next76, %for.inc.us ], [ 0, %for.body.lr.ph.split.us ]
  %4 = load ptr, ptr %missingcolor, align 8
  %tobool.not.us = icmp eq ptr %4, null
  %arrayidx.us = getelementptr inbounds float, ptr %4, i64 %indvars.iv75
  %spec.select103 = select i1 %tobool.not.us, ptr %fill, ptr %arrayidx.us
  %.sink91 = load float, ptr %spec.select103, align 4
  %5 = getelementptr inbounds float, ptr %result, i64 %indvars.iv75
  store float %.sink91, ptr %5, align 4
  %arrayidx15.us = getelementptr inbounds float, ptr %dresultdt, i64 %indvars.iv75
  store float 0.000000e+00, ptr %arrayidx15.us, align 4
  br i1 %tobool17.not, label %for.inc.us, label %if.then18.us

if.then18.us:                                     ; preds = %for.body.us
  %arrayidx20.us = getelementptr inbounds float, ptr %dresultdr, i64 %indvars.iv75
  store float 0.000000e+00, ptr %arrayidx20.us, align 4
  br label %for.inc.us

for.inc.us:                                       ; preds = %if.then18.us, %for.body.us
  %indvars.iv.next76 = add nuw nsw i64 %indvars.iv75, 1
  %exitcond79.not = icmp eq i64 %indvars.iv.next76, %wide.trip.count88
  br i1 %exitcond79.not, label %for.end, label %for.body.us, !llvm.loop !89

for.body.lr.ph.split:                             ; preds = %for.body.lr.ph
  br i1 %tobool12.not, label %for.body.lr.ph.split.split.us, label %for.body.lr.ph.split.split

for.body.lr.ph.split.split.us:                    ; preds = %for.body.lr.ph.split
  br i1 %tobool17.not, label %for.body.us17.us, label %for.body.us17

for.body.us17.us:                                 ; preds = %for.body.lr.ph.split.split.us, %for.body.us17.us
  %indvars.iv70 = phi i64 [ %indvars.iv.next71, %for.body.us17.us ], [ 0, %for.body.lr.ph.split.split.us ]
  %6 = load ptr, ptr %missingcolor, align 8
  %tobool.not.us19.us = icmp eq ptr %6, null
  %arrayidx.us22.us = getelementptr inbounds float, ptr %6, i64 %indvars.iv70
  %spec.select104 = select i1 %tobool.not.us19.us, ptr %fill, ptr %arrayidx.us22.us
  %.sink92 = load float, ptr %spec.select104, align 4
  %7 = getelementptr inbounds float, ptr %result, i64 %indvars.iv70
  store float %.sink92, ptr %7, align 4
  %arrayidx10.us.us = getelementptr inbounds float, ptr %dresultds, i64 %indvars.iv70
  store float 0.000000e+00, ptr %arrayidx10.us.us, align 4
  %indvars.iv.next71 = add nuw nsw i64 %indvars.iv70, 1
  %exitcond74.not = icmp eq i64 %indvars.iv.next71, %wide.trip.count88
  br i1 %exitcond74.not, label %for.end, label %for.body.us17.us, !llvm.loop !89

for.body.us17:                                    ; preds = %for.body.lr.ph.split.split.us, %for.body.us17
  %indvars.iv65 = phi i64 [ %indvars.iv.next66, %for.body.us17 ], [ 0, %for.body.lr.ph.split.split.us ]
  %8 = load ptr, ptr %missingcolor, align 8
  %tobool.not.us19 = icmp eq ptr %8, null
  %arrayidx.us22 = getelementptr inbounds float, ptr %8, i64 %indvars.iv65
  %spec.select105 = select i1 %tobool.not.us19, ptr %fill, ptr %arrayidx.us22
  %.sink93 = load float, ptr %spec.select105, align 4
  %9 = getelementptr inbounds float, ptr %result, i64 %indvars.iv65
  store float %.sink93, ptr %9, align 4
  %arrayidx10.us = getelementptr inbounds float, ptr %dresultds, i64 %indvars.iv65
  store float 0.000000e+00, ptr %arrayidx10.us, align 4
  %arrayidx20.us31 = getelementptr inbounds float, ptr %dresultdr, i64 %indvars.iv65
  store float 0.000000e+00, ptr %arrayidx20.us31, align 4
  %indvars.iv.next66 = add nuw nsw i64 %indvars.iv65, 1
  %exitcond69.not = icmp eq i64 %indvars.iv.next66, %wide.trip.count88
  br i1 %exitcond69.not, label %for.end, label %for.body.us17, !llvm.loop !89

for.body.lr.ph.split.split:                       ; preds = %for.body.lr.ph.split
  br i1 %tobool17.not, label %for.body.us35, label %for.body

for.body.us35:                                    ; preds = %for.body.lr.ph.split.split, %for.body.us35
  %indvars.iv60 = phi i64 [ %indvars.iv.next61, %for.body.us35 ], [ 0, %for.body.lr.ph.split.split ]
  %10 = load ptr, ptr %missingcolor, align 8
  %tobool.not.us37 = icmp eq ptr %10, null
  %arrayidx.us40 = getelementptr inbounds float, ptr %10, i64 %indvars.iv60
  %spec.select106 = select i1 %tobool.not.us37, ptr %fill, ptr %arrayidx.us40
  %.sink94 = load float, ptr %spec.select106, align 4
  %11 = getelementptr inbounds float, ptr %result, i64 %indvars.iv60
  store float %.sink94, ptr %11, align 4
  %arrayidx10.us47 = getelementptr inbounds float, ptr %dresultds, i64 %indvars.iv60
  store float 0.000000e+00, ptr %arrayidx10.us47, align 4
  %arrayidx15.us49 = getelementptr inbounds float, ptr %dresultdt, i64 %indvars.iv60
  store float 0.000000e+00, ptr %arrayidx15.us49, align 4
  %indvars.iv.next61 = add nuw nsw i64 %indvars.iv60, 1
  %exitcond64.not = icmp eq i64 %indvars.iv.next61, %wide.trip.count88
  br i1 %exitcond64.not, label %for.end, label %for.body.us35, !llvm.loop !89

for.body:                                         ; preds = %for.body.lr.ph.split.split, %for.body
  %indvars.iv = phi i64 [ %indvars.iv.next, %for.body ], [ 0, %for.body.lr.ph.split.split ]
  %12 = load ptr, ptr %missingcolor, align 8
  %tobool.not = icmp eq ptr %12, null
  %arrayidx = getelementptr inbounds float, ptr %12, i64 %indvars.iv
  %spec.select107 = select i1 %tobool.not, ptr %fill, ptr %arrayidx
  %.sink95 = load float, ptr %spec.select107, align 4
  %13 = getelementptr inbounds float, ptr %result, i64 %indvars.iv
  store float %.sink95, ptr %13, align 4
  %arrayidx10 = getelementptr inbounds float, ptr %dresultds, i64 %indvars.iv
  store float 0.000000e+00, ptr %arrayidx10, align 4
  %arrayidx15 = getelementptr inbounds float, ptr %dresultdt, i64 %indvars.iv
  store float 0.000000e+00, ptr %arrayidx15, align 4
  %arrayidx20 = getelementptr inbounds float, ptr %dresultdr, i64 %indvars.iv
  store float 0.000000e+00, ptr %arrayidx20, align 4
  %indvars.iv.next = add nuw nsw i64 %indvars.iv, 1
  %exitcond.not = icmp eq i64 %indvars.iv.next, %wide.trip.count88
  br i1 %exitcond.not, label %for.end, label %for.body, !llvm.loop !89

for.end:                                          ; preds = %for.body, %for.body.us35, %for.body.us17, %for.body.us17.us, %for.inc.us, %for.body.us.us, %for.body.us.us.us, %entry
  %missingcolor22 = getelementptr inbounds i8, ptr %options, i64 64
  %14 = load ptr, ptr %missingcolor22, align 8
  %tobool23.not = icmp ne ptr %14, null
  br i1 %tobool23.not, label %if.then24, label %return

if.then24:                                        ; preds = %for.end
  call void @_ZNSt7__cxx1112basic_stringIcSt11char_traitsIcESaIcEEC1Ev(ptr noundef nonnull align 8 dereferenceable(32) %agg.tmp.ensured) #30
  %m_errormessage.i = getelementptr inbounds i8, ptr %this, i64 160
  %call.i3.i = invoke noundef ptr @_ZN5boost6detail12get_tss_dataEPKv(ptr noundef nonnull %m_errormessage.i)
          to label %invoke.cont.i unwind label %lpad.i

invoke.cont.i:                                    ; preds = %if.then24
  %tobool.not.i = icmp eq ptr %call.i3.i, null
  br i1 %tobool.not.i, label %_ZNK18OpenImageIO_v2_6_03pvt17TextureSystemImpl8geterrorB5cxx11Eb.exit, label %if.then.i

if.then.i:                                        ; preds = %invoke.cont.i
  %call3.i = invoke noundef nonnull align 8 dereferenceable(32) ptr @_ZNSt7__cxx1112basic_stringIcSt11char_traitsIcESaIcEEaSERKS4_(ptr noundef nonnull align 8 dereferenceable(32) %agg.tmp.ensured, ptr noundef nonnull align 8 dereferenceable(32) %call.i3.i)
          to label %invoke.cont2.i unwind label %lpad.i

invoke.cont2.i:                                   ; preds = %if.then.i
  call void @_ZNSt7__cxx1112basic_stringIcSt11char_traitsIcESaIcEE5clearEv(ptr noundef nonnull align 8 dereferenceable(32) %call.i3.i) #30
  br label %_ZNK18OpenImageIO_v2_6_03pvt17TextureSystemImpl8geterrorB5cxx11Eb.exit

lpad.i:                                           ; preds = %if.then.i, %if.then24
  %15 = landingpad { ptr, i32 }
          cleanup
  call void @_ZNSt7__cxx1112basic_stringIcSt11char_traitsIcESaIcEED1Ev(ptr noundef nonnull align 8 dereferenceable(32) %agg.tmp.ensured) #30
  resume { ptr, i32 } %15

_ZNK18OpenImageIO_v2_6_03pvt17TextureSystemImpl8geterrorB5cxx11Eb.exit: ; preds = %invoke.cont.i, %invoke.cont2.i
  call void @_ZNSt7__cxx1112basic_stringIcSt11char_traitsIcESaIcEED1Ev(ptr noundef nonnull align 8 dereferenceable(32) %agg.tmp.ensured) #30
  br label %return

return:                                           ; preds = %for.end, %_ZNK18OpenImageIO_v2_6_03pvt17TextureSystemImpl8geterrorB5cxx11Eb.exit
  ret i1 %tobool23.not
}